; Function Attrs: nounwind uwtable
define dso_local i64 @pg_stat_get_db_checksum_failures(ptr noundef captures(none) %0) local_unnamed_addr #0 {
  %2 = getelementptr inbounds nuw i8, ptr %0, i64 32
  %3 = load i64, ptr %2, align 8
  %4 = tail call zeroext i1 @DataChecksumsEnabled() #9
  br i1 %4, label %7, label %5

5:                                                ; preds = %1
  %6 = getelementptr inbounds nuw i8, ptr %0, i64 28
  store i8 1, ptr %6, align 4
  br label %14

7:                                                ; preds = %1
  %8 = trunc i64 %3 to i32
  %9 = tail call ptr @pgstat_fetch_stat_dbentry(i32 noundef %8) #9
  %10 = icmp eq ptr %9, null
  br i1 %10, label %14, label %11

11:                                               ; preds = %7
  %12 = getelementptr inbounds nuw i8, ptr %9, i64 152
  %13 = load i64, ptr %12, align 8
  br label %14

14:                                               ; preds = %11, %7, %5
  %.0 = phi i64 [ 0, %5 ], [ %13, %11 ], [ 0, %7 ]
  ret i64 %.0
}